ccopy_reg
_reconstructor
p0
(cpandas.core.frame
DataFrame
p1
c__builtin__
object
p2
Ntp3
Rp4
(dp5
S'_metadata'
p6
(lp7
sS'_typ'
p8
S'dataframe'
p9
sS'_data'
p10
g0
(cpandas.core.internals.managers
BlockManager
p11
g2
Ntp12
Rp13
((lp14
cpandas.core.indexes.base
_new_Index
p15
(cpandas.core.indexes.base
Index
p16
(dp17
S'data'
p18
cnumpy.core.multiarray
_reconstruct
p19
(cnumpy
ndarray
p20
(I0
tp21
S'b'
p22
tp23
Rp24
(I1
(I16
tp25
cnumpy
dtype
p26
(S'O8'
p27
I0
I1
tp28
Rp29
(I3
S'|'
p30
NNNI-1
I-1
I63
tp31
bI00
(lp32
S'x'
p33
aS'y'
p34
aI0
aI1
aI2
aI3
aI4
aI5
aI6
aI7
aI8
aI9
aI10
aI11
aI12
aS'I-avg'
p35
atp36
bsS'name'
p37
Nstp38
Rp39
ag15
(cpandas.core.indexes.numeric
Int64Index
p40
(dp41
g18
g19
(g20
(I0
tp42
g22
tp43
Rp44
(I1
(I0
tp45
g26
(S'i8'
p46
I0
I1
tp47
Rp48
(I3
S'<'
p49
NNNI-1
I-1
I0
tp50
bI00
S''
p51
tp52
bsg37
Nstp53
Rp54
a(lp55
g19
(g20
(I0
tp56
g22
tp57
Rp58
(I1
(I16
I0
tp59
g29
I00
(lp60
tp61
ba(lp62
g15
(g16
(dp63
g18
g19
(g20
(I0
tp64
g22
tp65
Rp66
(I1
(I16
tp67
g29
I00
(lp68
g33
ag34
aI0
aI1
aI2
aI3
aI4
aI5
aI6
aI7
aI8
aI9
aI10
aI11
aI12
ag35
atp69
bsg37
Nstp70
Rp71
a(dp72
S'0.14.1'
p73
(dp74
S'axes'
p75
g14
sS'blocks'
p76
(lp77
(dp78
S'mgr_locs'
p79
c__builtin__
slice
p80
(I0
I16
I1
tp81
Rp82
sS'values'
p83
g58
sasstp84
bsb.